; Function Attrs: nounwind uwtable
define range(i32 -2, 1) i32 @KINSetRelErrFunc(ptr noundef %0, double noundef %1) local_unnamed_addr #0 {
  %3 = icmp eq ptr %0, null
  br i1 %3, label %4, label %5

4:                                                ; preds = %2
  tail call void (ptr, i32, ptr, ptr, ptr, ...) @KINProcessError(ptr noundef null, i32 noundef -1, ptr noundef nonnull @.str, ptr noundef nonnull @.str.34, ptr noundef nonnull @.str.2) #6
  br label %17

5:                                                ; preds = %2
  %6 = fcmp olt double %1, 0.000000e+00
  br i1 %6, label %7, label %8

7:                                                ; preds = %5
  tail call void (ptr, i32, ptr, ptr, ptr, ...) @KINProcessError(ptr noundef null, i32 noundef -2, ptr noundef nonnull @.str, ptr noundef nonnull @.str.34, ptr noundef nonnull @.str.35) #6
  br label %17

8:                                                ; preds = %5
  %9 = fcmp oeq double %1, 0.000000e+00
  br i1 %9, label %10, label %14

10:                                               ; preds = %8
  %11 = load double, ptr %0, align 8
  %12 = tail call double @SUNRsqrt(double noundef %11) #6
  %13 = getelementptr inbounds nuw i8, ptr %0, i64 136
  store double %12, ptr %13, align 8
  br label %17

14:                                               ; preds = %8
  %15 = tail call double @SUNRsqrt(double noundef %1) #6
  %16 = getelementptr inbounds nuw i8, ptr %0, i64 136
  store double %15, ptr %16, align 8
  br label %17

17:                                               ; preds = %10, %14, %7, %4
  %.0 = phi i32 [ -1, %4 ], [ -2, %7 ], [ 0, %14 ], [ 0, %10 ]
  ret i32 %.0
}